target datalayout = "e-m:e-p270:32:32-p271:32:32-p272:64:64-i64:64-i128:128-f80:128-n8:16:32:64-S128"
target triple = "x86_64-pc-linux-gnu"

; Function Attrs: nounwind uwtable
define internal i32 @db_getuservalue(ptr noundef %0) #0 {
  %2 = alloca i32, align 4
  %3 = alloca ptr, align 8
  %4 = alloca i32, align 4
  %5 = alloca i32, align 4
  store ptr %0, ptr %3, align 8, !tbaa !4
  call void @llvm.lifetime.start.p0(i64 4, ptr %4) #6
  %6 = load ptr, ptr %3, align 8, !tbaa !4
  %7 = call i64 @luaL_optinteger(ptr noundef %6, i32 noundef 2, i64 noundef 1)
  %8 = trunc i64 %7 to i32
  store i32 %8, ptr %4, align 4, !tbaa !11
  %9 = load ptr, ptr %3, align 8, !tbaa !4
  %10 = call i32 @lua_type(ptr noundef %9, i32 noundef 1)
  %11 = icmp ne i32 %10, 7
  br i1 %11, label %12, label %14

12:                                               ; preds = %1
  %13 = load ptr, ptr %3, align 8, !tbaa !4
  call void @lua_pushnil(ptr noundef %13)
  br label %22

14:                                               ; preds = %1
  %15 = load ptr, ptr %3, align 8, !tbaa !4
  %16 = load i32, ptr %4, align 4, !tbaa !11
  %17 = call i32 @lua_getiuservalue(ptr noundef %15, i32 noundef 1, i32 noundef %16)
  %18 = icmp ne i32 %17, -1
  br i1 %18, label %19, label %21

19:                                               ; preds = %14
  %20 = load ptr, ptr %3, align 8, !tbaa !4
  call void @lua_pushboolean(ptr noundef %20, i32 noundef 1)
  store i32 2, ptr %2, align 4
  store i32 1, ptr %5, align 4
  br label %23

21:                                               ; preds = %14
  br label %22

22:                                               ; preds = %21, %12
  store i32 1, ptr %2, align 4
  store i32 1, ptr %5, align 4
  br label %23

23:                                               ; preds = %22, %19
  call void @llvm.lifetime.end.p0(i64 4, ptr %4) #6
  %24 = load i32, ptr %2, align 4
  ret i32 %24
}