; Function Attrs: nounwind uwtable
define internal range(i32 1, 3) i32 @db_getuservalue(ptr noundef %0) #0 {
  %2 = tail call i64 @luaL_optinteger(ptr noundef %0, i32 noundef 2, i64 noundef 1) #8
  %3 = tail call i32 @lua_type(ptr noundef %0, i32 noundef 1) #8
  %.not = icmp eq i32 %3, 7
  br i1 %.not, label %5, label %4

4:                                                ; preds = %1
  tail call void @lua_pushnil(ptr noundef %0) #8
  br label %9

5:                                                ; preds = %1
  %6 = trunc i64 %2 to i32
  %7 = tail call i32 @lua_getiuservalue(ptr noundef %0, i32 noundef 1, i32 noundef %6) #8
  %.not6 = icmp eq i32 %7, -1
  br i1 %.not6, label %9, label %8

8:                                                ; preds = %5
  tail call void @lua_pushboolean(ptr noundef %0, i32 noundef 1) #8
  br label %9

9:                                                ; preds = %4, %5, %8
  %.0 = phi i32 [ 2, %8 ], [ 1, %5 ], [ 1, %4 ]
  ret i32 %.0
}